target datalayout = "e-m:e-p270:32:32-p271:32:32-p272:64:64-i64:64-i128:128-f80:128-n8:16:32:64-S128"
target triple = "x86_64-pc-linux-gnu"

%struct.ggml_type_traits = type { ptr, i64, i64, i64, i8, ptr, ptr }

; Function Attrs: nounwind uwtable
define i64 @ggml_blck_size(i32 noundef %0) #5 {
  %2 = alloca i32, align 4
  store i32 %0, ptr %2, align 4, !tbaa !8
  %3 = load i32, ptr %2, align 4, !tbaa !8
  %4 = zext i32 %3 to i64
  %5 = getelementptr inbounds nuw [39 x %struct.ggml_type_traits], ptr @type_traits, i64 0, i64 %4
  %6 = getelementptr inbounds nuw %struct.ggml_type_traits, ptr %5, i32 0, i32 1
  %7 = load i64, ptr %6, align 8, !tbaa !61
  ret i64 %7
}

; Function Attrs: nounwind uwtable
define i64 @ggml_type_size(i32 noundef %0) #5 {
  %2 = alloca i32, align 4
  store i32 %0, ptr %2, align 4, !tbaa !8
  %3 = load i32, ptr %2, align 4, !tbaa !8
  %4 = zext i32 %3 to i64
  %5 = getelementptr inbounds nuw [39 x %struct.ggml_type_traits], ptr @type_traits, i64 0, i64 %4
  %6 = getelementptr inbounds nuw %struct.ggml_type_traits, ptr %5, i32 0, i32 3
  %7 = load i64, ptr %6, align 8, !tbaa !63
  ret i64 %7
}

; Function Attrs: nounwind uwtable
define i64 @ggml_row_size(i32 noundef %0, i64 noundef %1) #5 {
  %3 = alloca i32, align 4
  %4 = alloca i64, align 8
  store i32 %0, ptr %3, align 4, !tbaa !8
  store i64 %1, ptr %4, align 8, !tbaa !19
  %5 = load i32, ptr %3, align 4, !tbaa !8
  %6 = call i64 @ggml_type_size(i32 noundef %5)
  %7 = load i64, ptr %4, align 8, !tbaa !19
  %8 = mul i64 %6, %7
  %9 = load i32, ptr %3, align 4, !tbaa !8
  %10 = call i64 @ggml_blck_size(i32 noundef %9)
  %11 = udiv i64 %8, %10
  ret i64 %11
}