; Function Attrs: mustprogress nofree norecurse nosync nounwind willreturn memory(none) uwtable
define i64 @ggml_row_size(i32 noundef %0, i64 noundef %1) local_unnamed_addr #9 {
  %3 = zext i32 %0 to i64
  %4 = getelementptr inbounds nuw [39 x %struct.ggml_type_traits], ptr @type_traits, i64 0, i64 %3, i32 3
  %5 = load i64, ptr %4, align 8, !tbaa !47
  %6 = mul i64 %5, %1
  %7 = getelementptr inbounds nuw [39 x %struct.ggml_type_traits], ptr @type_traits, i64 0, i64 %3, i32 1
  %8 = load i64, ptr %7, align 8, !tbaa !44
  %9 = udiv i64 %6, %8
  ret i64 %9
}